Certificate:
    Data:
        Version: 3 (0x2)
        Serial Number:
            91:ef:d4:96:09:42:e0:7d
        Signature Algorithm: sha1WithRSAEncryption
        Issuer: C=US, ST=Colorado, O=Example, CN=Example CA/emailAddress=bogus@example.com
        Validity
            Not Before: Jul  6 15:12:22 2010 GMT
            Not After : Jul  5 15:12:22 2013 GMT
        Subject: C=US, ST=Colorado, O=Example, CN=Example CA/emailAddress=bogus@example.com
        Subject Public Key Info:
            Public Key Algorithm: rsaEncryption
            RSA Public Key: (1024 bit)
                Modulus (1024 bit):
                    00:ae:d8:fd:3e:de:1b:92:d4:13:42:16:84:ff:fa:
                    22:05:50:0c:63:66:5f:99:48:77:21:40:b9:38:1c:
                    8e:32:ea:cb:de:e1:ec:f8:cc:b4:10:d2:34:28:a4:
                    1e:b2:ba:0f:c1:5d:0d:db:63:0e:6a:f8:03:0b:a7:
                    71:3a:31:06:69:da:df:c9:ef:bf:e0:9a:60:1c:7e:
                    17:8e:dc:ea:6d:93:8a:d8:5a:d9:02:c0:f6:e2:d1:
                    6d:e2:b7:33:6b:aa:33:95:16:37:89:55:fd:9e:a2:
                    a0:d3:10:19:d5:8b:69:d8:14:26:d1:f8:fa:c5:8f:
                    bf:f9:b6:28:c6:64:92:76:1f
                Exponent: 65537 (0x10001)
        X509v3 extensions:
            X509v3 Subject Key Identifier: 
                13:CA:37:16:F0:10:5D:7E:8C:C0:52:E8:40:2D:7D:B1:D2:B2:97:66
            X509v3 Authority Key Identifier: 
                keyid:13:CA:37:16:F0:10:5D:7E:8C:C0:52:E8:40:2D:7D:B1:D2:B2:97:66
                DirName:/C=US/ST=Colorado/O=Example/CN=Example CA/emailAddress=bogus@example.com
                serial:91:EF:D4:96:09:42:E0:7D

            X509v3 Basic Constraints: 
                CA:TRUE
    Signature Algorithm: sha1WithRSAEncryption
        4c:6d:69:f6:47:3d:68:8a:cb:27:ca:aa:1b:3c:64:0f:5e:1c:
        1b:83:fc:db:c1:db:59:68:d3:f9:c1:6c:b0:b3:2c:29:e3:ef:
        49:db:f0:17:2b:d3:26:de:57:f4:c0:a2:75:ed:78:5f:d3:2e:
        f5:83:fc:8f:f9:ae:d3:fd:2f:5e:b1:50:b3:1f:32:b1:7b:f2:
        31:df:ab:74:ea:b4:20:e9:05:8e:0d:5a:56:86:dc:66:78:8b:
        b7:33:27:32:4d:bc:a3:65:e9:6e:7c:e4:f5:4d:92:21:d5:b0:
        df:2a:12:77:5a:47:ab:18:78:dc:79:77:ca:31:95:c7:d4:e2:
        eb:a7
-----BEGIN CERTIFICATE-----
MIIDHzCCAoigAwIBAgIJAJHv1JYJQuB9MA0GCSqGSIb3DQEBBQUAMGkxCzAJBgNV
BAYTAlVTMREwDwYDVQQIEwhDb2xvcmFkbzEQMA4GA1UEChMHRXhhbXBsZTETMBEG
A1UEAxMKRXhhbXBsZSBDQTEgMB4GCSqGSIb3DQEJARYRYm9ndXNAZXhhbXBsZS5j
b20wHhcNMTAwNzA2MTUxMjIyWhcNMTMwNzA1MTUxMjIyWjBpMQswCQYDVQQGEwJV
UzERMA8GA1UECBMIQ29sb3JhZG8xEDAOBgNVBAoTB0V4YW1wbGUxEzARBgNVBAMT
CkV4YW1wbGUgQ0ExIDAeBgkqhkiG9w0BCQEWEWJvZ3VzQGV4YW1wbGUuY29tMIGf
MA0GCSqGSIb3DQEBAQUAA4GNADCBiQKBgQCu2P0+3huS1BNCFoT/+iIFUAxjZl+Z
SHchQLk4HI4y6sve4ez4zLQQ0jQopB6yug/BXQ3bYw5q+AMLp3E6MQZp2t/J77/g
mmAcfheO3Optk4rYWtkCwPbi0W3itzNrqjOVFjeJVf2eoqDTEBnVi2nYFCbR+PrF
j7/5tijGZJJ2HwIDAQABo4HOMIHLMB0GA1UdDgQWBBQTyjcW8BBdfozAUuhALX2x
0rKXZjCBmwYDVR0jBIGTMIGQgBQTyjcW8BBdfozAUuhALX2x0rKXZqFtpGswaTEL
MAkGA1UEBhMCVVMxETAPBgNVBAgTCENvbG9yYWRvMRAwDgYDVQQKEwdFeGFtcGxl
MRMwEQYDVQQDEwpFeGFtcGxlIENBMSAwHgYJKoZIhvcNAQkBFhFib2d1c0BleGFt
cGxlLmNvbYIJAJHv1JYJQuB9MAwGA1UdEwQFMAMBAf8wDQYJKoZIhvcNAQEFBQAD
gYEATG1p9kc9aIrLJ8qqGzxkD14cG4P828HbWWjT+cFssLMsKePvSdvwFyvTJt5X
9MCide14X9Mu9YP8j/mu0/0vXrFQsx8ysXvyMd+rdOq0IOkFjg1aVobcZniLtzMn
Mk28o2Xpbnzk9U2SIdWw3yoSd1pHqxh43Hl3yjGVx9Ti66c=
-----END CERTIFICATE-----
